; Function Attrs: mustprogress uwtable
define hidden void @_ZNK19OpenColorIO_v2_4dev16LogTransformImpl8validateEv(ptr noundef nonnull align 8 dereferenceable(264) %this) unnamed_addr #0 align 2 personality ptr @__gxx_personality_v0 {
entry:
  %errMsg = alloca %"class.std::__cxx11::basic_string", align 8
  %ref.tmp = alloca %"class.std::allocator", align 1
  invoke void @_ZNK19OpenColorIO_v2_4dev9Transform8validateEv(ptr noundef nonnull align 8 dereferenceable(8) %this)
          to label %invoke.cont unwind label %lpad

invoke.cont:                                      ; preds = %entry
  %m_data.i = getelementptr inbounds i8, ptr %this, i64 8
  %vtable = load ptr, ptr %m_data.i, align 8
  %vfn = getelementptr inbounds i8, ptr %vtable, i64 16
  %0 = load ptr, ptr %vfn, align 8
  invoke void %0(ptr noundef nonnull align 8 dereferenceable(252) %m_data.i)
          to label %try.cont unwind label %lpad

lpad:                                             ; preds = %invoke.cont, %entry
  %1 = landingpad { ptr, i32 }
          catch ptr @_ZTIN19OpenColorIO_v2_4dev9ExceptionE
  %2 = extractvalue { ptr, i32 } %1, 1
  %3 = tail call i32 @llvm.eh.typeid.for(ptr nonnull @_ZTIN19OpenColorIO_v2_4dev9ExceptionE) #16
  %matches = icmp eq i32 %2, %3
  br i1 %matches, label %catch, label %eh.resume

catch:                                            ; preds = %lpad
  %4 = extractvalue { ptr, i32 } %1, 0
  %5 = tail call ptr @__cxa_begin_catch(ptr %4) #16
  call void @_ZNSaIcEC1Ev(ptr noundef nonnull align 1 dereferenceable(1) %ref.tmp) #16
  invoke void @_ZNSt7__cxx1112basic_stringIcSt11char_traitsIcESaIcEEC1EPKcRKS3_(ptr noundef nonnull align 8 dereferenceable(32) %errMsg, ptr noundef nonnull @.str, ptr noundef nonnull align 1 dereferenceable(1) %ref.tmp)
          to label %invoke.cont4 unwind label %lpad3

invoke.cont4:                                     ; preds = %catch
  call void @_ZNSaIcED1Ev(ptr noundef nonnull align 1 dereferenceable(1) %ref.tmp) #16
  %vtable5 = load ptr, ptr %5, align 8
  %vfn6 = getelementptr inbounds i8, ptr %vtable5, i64 16
  %6 = load ptr, ptr %vfn6, align 8
  %call7 = call noundef ptr %6(ptr noundef nonnull align 8 dereferenceable(16) %5) #16
  %call10 = invoke noundef nonnull align 8 dereferenceable(32) ptr @_ZNSt7__cxx1112basic_stringIcSt11char_traitsIcESaIcEEpLEPKc(ptr noundef nonnull align 8 dereferenceable(32) %errMsg, ptr noundef %call7)
          to label %invoke.cont9 unwind label %lpad8

invoke.cont9:                                     ; preds = %invoke.cont4
  %exception = call ptr @__cxa_allocate_exception(i64 16) #16
  %call11 = call noundef ptr @_ZNKSt7__cxx1112basic_stringIcSt11char_traitsIcESaIcEE5c_strEv(ptr noundef nonnull align 8 dereferenceable(32) %errMsg) #16
  invoke void @_ZN19OpenColorIO_v2_4dev9ExceptionC1EPKc(ptr noundef nonnull align 8 dereferenceable(16) %exception, ptr noundef %call11)
          to label %invoke.cont13 unwind label %lpad12

invoke.cont13:                                    ; preds = %invoke.cont9
  invoke void @__cxa_throw(ptr nonnull %exception, ptr nonnull @_ZTIN19OpenColorIO_v2_4dev9ExceptionE, ptr nonnull @_ZN19OpenColorIO_v2_4dev9ExceptionD1Ev) #17
          to label %unreachable unwind label %lpad8

lpad3:                                            ; preds = %catch
  %7 = landingpad { ptr, i32 }
          cleanup
  call void @_ZNSaIcED1Ev(ptr noundef nonnull align 1 dereferenceable(1) %ref.tmp) #16
  br label %ehcleanup14

lpad8:                                            ; preds = %invoke.cont13, %invoke.cont4
  %8 = landingpad { ptr, i32 }
          cleanup
  br label %ehcleanup

lpad12:                                           ; preds = %invoke.cont9
  %9 = landingpad { ptr, i32 }
          cleanup
  call void @__cxa_free_exception(ptr %exception) #16
  br label %ehcleanup

ehcleanup:                                        ; preds = %lpad12, %lpad8
  %.pn = phi { ptr, i32 } [ %8, %lpad8 ], [ %9, %lpad12 ]
  call void @_ZNSt7__cxx1112basic_stringIcSt11char_traitsIcESaIcEED1Ev(ptr noundef nonnull align 8 dereferenceable(32) %errMsg) #16
  br label %ehcleanup14

ehcleanup14:                                      ; preds = %ehcleanup, %lpad3
  %.pn.pn = phi { ptr, i32 } [ %.pn, %ehcleanup ], [ %7, %lpad3 ]
  invoke void @__cxa_end_catch()
          to label %eh.resume unwind label %terminate.lpad

try.cont:                                         ; preds = %invoke.cont
  ret void

eh.resume:                                        ; preds = %ehcleanup14, %lpad
  %lpad.val18.merged = phi { ptr, i32 } [ %.pn.pn, %ehcleanup14 ], [ %1, %lpad ]
  resume { ptr, i32 } %lpad.val18.merged

terminate.lpad:                                   ; preds = %ehcleanup14
  %10 = landingpad { ptr, i32 }
          catch ptr null
  %11 = extractvalue { ptr, i32 } %10, 0
  call void @__clang_call_terminate(ptr %11) #18
  unreachable

unreachable:                                      ; preds = %invoke.cont13
  unreachable
}